; Function Attrs: mustprogress uwtable
define noundef ptr @_ZN9context_t7currentEv() local_unnamed_addr #0 align 2 personality ptr @__gxx_personality_v0 {
  %1 = call align 8 ptr @llvm.threadlocal.address.p0(ptr align 8 @_ZL3cur)
  %2 = load ptr, ptr %1, align 8, !tbaa !17
  %3 = icmp eq ptr %2, null
  br i1 %3, label %4, label %12

4:                                                ; preds = %0
  %5 = call noalias noundef nonnull dereferenceable(32) ptr @_Znwm(i64 noundef 32) #9
  invoke void @_ZN9context_tC1Ev(ptr noundef nonnull align 8 dereferenceable(32) %5)
          to label %6 unwind label %10

6:                                                ; preds = %4
  store ptr %5, ptr %1, align 8, !tbaa !17
  %7 = getelementptr inbounds nuw i8, ptr %5, i64 24
  %8 = load ptr, ptr %7, align 8, !tbaa !3
  %9 = call i32 @getcontext(ptr noundef %8) #12
  %.pre = load ptr, ptr %1, align 8, !tbaa !17
  br label %12

10:                                               ; preds = %4
  %11 = landingpad { ptr, i32 }
          cleanup
  call void @_ZdlPvm(ptr noundef nonnull %5, i64 noundef 32) #13
  resume { ptr, i32 } %11

12:                                               ; preds = %6, %0
  %13 = phi ptr [ %.pre, %6 ], [ %2, %0 ]
  ret ptr %13
}